target datalayout = "e-m:e-p270:32:32-p271:32:32-p272:64:64-i64:64-i128:128-f80:128-n8:16:32:64-S128"
target triple = "x86_64-pc-linux-gnu"

%struct.mbedtls_ecp_group = type { i32, %struct.mbedtls_mpi, %struct.mbedtls_mpi, %struct.mbedtls_mpi, %struct.mbedtls_ecp_point, %struct.mbedtls_mpi, i64, i64, i32, ptr, ptr, ptr, ptr, ptr, i64 }
%struct.mbedtls_ecp_point = type { %struct.mbedtls_mpi, %struct.mbedtls_mpi, %struct.mbedtls_mpi }
%struct.mbedtls_mpi = type { ptr, i16, i16 }
%struct.mbedtls_ecdh_context = type { i8, i32, i32, %union.anon }
%union.anon = type { %struct.mbedtls_ecdh_context_mbed }
%struct.mbedtls_ecdh_context_mbed = type { %struct.mbedtls_ecp_group, %struct.mbedtls_mpi, %struct.mbedtls_ecp_point, %struct.mbedtls_ecp_point, %struct.mbedtls_mpi }

; Function Attrs: nounwind uwtable
define internal i32 @ecdh_gen_public_restartable(ptr noundef %0, ptr noundef %1, ptr noundef %2, ptr noundef %3, ptr noundef %4, ptr noundef %5) #0 {
  %7 = alloca ptr, align 8
  %8 = alloca ptr, align 8
  %9 = alloca ptr, align 8
  %10 = alloca ptr, align 8
  %11 = alloca ptr, align 8
  %12 = alloca ptr, align 8
  %13 = alloca i32, align 4
  %14 = alloca i32, align 4
  store ptr %0, ptr %7, align 8, !tbaa !7
  store ptr %1, ptr %8, align 8, !tbaa !10
  store ptr %2, ptr %9, align 8, !tbaa !12
  store ptr %3, ptr %10, align 8, !tbaa !14
  store ptr %4, ptr %11, align 8, !tbaa !14
  store ptr %5, ptr %12, align 8, !tbaa !14
  call void @llvm.lifetime.start.p0(i64 4, ptr %13) #4
  store i32 -110, ptr %13, align 4, !tbaa !3
  call void @llvm.lifetime.start.p0(i64 4, ptr %14) #4
  store i32 0, ptr %14, align 4, !tbaa !3
  %15 = load i32, ptr %14, align 4, !tbaa !3
  %16 = icmp ne i32 %15, 0
  br i1 %16, label %29, label %17

17:                                               ; preds = %6
  br label %18

18:                                               ; preds = %17
  %19 = load ptr, ptr %7, align 8, !tbaa !7
  %20 = load ptr, ptr %8, align 8, !tbaa !10
  %21 = load ptr, ptr %10, align 8, !tbaa !14
  %22 = load ptr, ptr %11, align 8, !tbaa !14
  %23 = call i32 @mbedtls_ecp_gen_privkey(ptr noundef %19, ptr noundef %20, ptr noundef %21, ptr noundef %22)
  store i32 %23, ptr %13, align 4, !tbaa !3
  %24 = icmp ne i32 %23, 0
  br i1 %24, label %25, label %26

25:                                               ; preds = %18
  br label %45

26:                                               ; preds = %18
  br label %27

27:                                               ; preds = %26
  br label %28

28:                                               ; preds = %27
  br label %29

29:                                               ; preds = %28, %6
  br label %30

30:                                               ; preds = %29
  %31 = load ptr, ptr %7, align 8, !tbaa !7
  %32 = load ptr, ptr %9, align 8, !tbaa !12
  %33 = load ptr, ptr %8, align 8, !tbaa !10
  %34 = load ptr, ptr %7, align 8, !tbaa !7
  %35 = getelementptr inbounds nuw %struct.mbedtls_ecp_group, ptr %34, i32 0, i32 4
  %36 = load ptr, ptr %10, align 8, !tbaa !14
  %37 = load ptr, ptr %11, align 8, !tbaa !14
  %38 = load ptr, ptr %12, align 8, !tbaa !14
  %39 = call i32 @mbedtls_ecp_mul_restartable(ptr noundef %31, ptr noundef %32, ptr noundef %33, ptr noundef %35, ptr noundef %36, ptr noundef %37, ptr noundef %38)
  store i32 %39, ptr %13, align 4, !tbaa !3
  %40 = icmp ne i32 %39, 0
  br i1 %40, label %41, label %42

41:                                               ; preds = %30
  br label %45

42:                                               ; preds = %30
  br label %43

43:                                               ; preds = %42
  br label %44

44:                                               ; preds = %43
  br label %45

45:                                               ; preds = %44, %41, %25
  %46 = load i32, ptr %13, align 4, !tbaa !3
  call void @llvm.lifetime.end.p0(i64 4, ptr %14) #4
  call void @llvm.lifetime.end.p0(i64 4, ptr %13) #4
  ret i32 %46
}

; Function Attrs: nounwind uwtable
define hidden i32 @mbedtls_ecdh_gen_public(ptr noundef %0, ptr noundef %1, ptr noundef %2, ptr noundef %3, ptr noundef %4) #0 {
  %6 = alloca ptr, align 8
  %7 = alloca ptr, align 8
  %8 = alloca ptr, align 8
  %9 = alloca ptr, align 8
  %10 = alloca ptr, align 8
  store ptr %0, ptr %6, align 8, !tbaa !7
  store ptr %1, ptr %7, align 8, !tbaa !10
  store ptr %2, ptr %8, align 8, !tbaa !12
  store ptr %3, ptr %9, align 8, !tbaa !14
  store ptr %4, ptr %10, align 8, !tbaa !14
  %11 = load ptr, ptr %6, align 8, !tbaa !7
  %12 = load ptr, ptr %7, align 8, !tbaa !10
  %13 = load ptr, ptr %8, align 8, !tbaa !12
  %14 = load ptr, ptr %9, align 8, !tbaa !14
  %15 = load ptr, ptr %10, align 8, !tbaa !14
  %16 = call i32 @ecdh_gen_public_restartable(ptr noundef %11, ptr noundef %12, ptr noundef %13, ptr noundef %14, ptr noundef %15, ptr noundef null)
  ret i32 %16
}

; Function Attrs: nounwind uwtable
define internal i32 @ecdh_make_params_internal(ptr noundef %0, ptr noundef %1, i32 noundef %2, ptr noundef %3, i64 noundef %4, ptr noundef %5, ptr noundef %6, i32 noundef %7) #0 {
  %9 = alloca i32, align 4
  %10 = alloca ptr, align 8
  %11 = alloca ptr, align 8
  %12 = alloca i32, align 4
  %13 = alloca ptr, align 8
  %14 = alloca i64, align 8
  %15 = alloca ptr, align 8
  %16 = alloca ptr, align 8
  %17 = alloca i32, align 4
  %18 = alloca i32, align 4
  %19 = alloca i64, align 8
  %20 = alloca i64, align 8
  %21 = alloca i32, align 4
  store ptr %0, ptr %10, align 8, !tbaa !21
  store ptr %1, ptr %11, align 8, !tbaa !23
  store i32 %2, ptr %12, align 4, !tbaa !3
  store ptr %3, ptr %13, align 8, !tbaa !25
  store i64 %4, ptr %14, align 8, !tbaa !27
  store ptr %5, ptr %15, align 8, !tbaa !14
  store ptr %6, ptr %16, align 8, !tbaa !14
  store i32 %7, ptr %17, align 4, !tbaa !3
  call void @llvm.lifetime.start.p0(i64 4, ptr %18) #4
  store i32 -110, ptr %18, align 4, !tbaa !3
  call void @llvm.lifetime.start.p0(i64 8, ptr %19) #4
  call void @llvm.lifetime.start.p0(i64 8, ptr %20) #4
  %22 = load ptr, ptr %10, align 8, !tbaa !21
  %23 = getelementptr inbounds nuw %struct.mbedtls_ecdh_context_mbed, ptr %22, i32 0, i32 0
  %24 = getelementptr inbounds nuw %struct.mbedtls_ecp_group, ptr %23, i32 0, i32 6
  %25 = load i64, ptr %24, align 8, !tbaa !29
  %26 = icmp eq i64 %25, 0
  br i1 %26, label %27, label %28

27:                                               ; preds = %8
  store i32 -20352, ptr %9, align 4
  store i32 1, ptr %21, align 4
  br label %73

28:                                               ; preds = %8
  %29 = load ptr, ptr %10, align 8, !tbaa !21
  %30 = getelementptr inbounds nuw %struct.mbedtls_ecdh_context_mbed, ptr %29, i32 0, i32 0
  %31 = load ptr, ptr %10, align 8, !tbaa !21
  %32 = getelementptr inbounds nuw %struct.mbedtls_ecdh_context_mbed, ptr %31, i32 0, i32 1
  %33 = load ptr, ptr %10, align 8, !tbaa !21
  %34 = getelementptr inbounds nuw %struct.mbedtls_ecdh_context_mbed, ptr %33, i32 0, i32 2
  %35 = load ptr, ptr %15, align 8, !tbaa !14
  %36 = load ptr, ptr %16, align 8, !tbaa !14
  %37 = call i32 @mbedtls_ecdh_gen_public(ptr noundef %30, ptr noundef %32, ptr noundef %34, ptr noundef %35, ptr noundef %36)
  store i32 %37, ptr %18, align 4, !tbaa !3
  %38 = icmp ne i32 %37, 0
  br i1 %38, label %39, label %41

39:                                               ; preds = %28
  %40 = load i32, ptr %18, align 4, !tbaa !3
  store i32 %40, ptr %9, align 4
  store i32 1, ptr %21, align 4
  br label %73

41:                                               ; preds = %28
  %42 = load ptr, ptr %10, align 8, !tbaa !21
  %43 = getelementptr inbounds nuw %struct.mbedtls_ecdh_context_mbed, ptr %42, i32 0, i32 0
  %44 = load ptr, ptr %13, align 8, !tbaa !25
  %45 = load i64, ptr %14, align 8, !tbaa !27
  %46 = call i32 @mbedtls_ecp_tls_write_group(ptr noundef %43, ptr noundef %19, ptr noundef %44, i64 noundef %45)
  store i32 %46, ptr %18, align 4, !tbaa !3
  %47 = icmp ne i32 %46, 0
  br i1 %47, label %48, label %50

48:                                               ; preds = %41
  %49 = load i32, ptr %18, align 4, !tbaa !3
  store i32 %49, ptr %9, align 4
  store i32 1, ptr %21, align 4
  br label %73

50:                                               ; preds = %41
  %51 = load i64, ptr %19, align 8, !tbaa !27
  %52 = load ptr, ptr %13, align 8, !tbaa !25
  %53 = getelementptr inbounds nuw i8, ptr %52, i64 %51
  store ptr %53, ptr %13, align 8, !tbaa !25
  %54 = load i64, ptr %19, align 8, !tbaa !27
  %55 = load i64, ptr %14, align 8, !tbaa !27
  %56 = sub i64 %55, %54
  store i64 %56, ptr %14, align 8, !tbaa !27
  %57 = load ptr, ptr %10, align 8, !tbaa !21
  %58 = getelementptr inbounds nuw %struct.mbedtls_ecdh_context_mbed, ptr %57, i32 0, i32 0
  %59 = load ptr, ptr %10, align 8, !tbaa !21
  %60 = getelementptr inbounds nuw %struct.mbedtls_ecdh_context_mbed, ptr %59, i32 0, i32 2
  %61 = load i32, ptr %12, align 4, !tbaa !3
  %62 = load ptr, ptr %13, align 8, !tbaa !25
  %63 = load i64, ptr %14, align 8, !tbaa !27
  %64 = call i32 @mbedtls_ecp_tls_write_point(ptr noundef %58, ptr noundef %60, i32 noundef %61, ptr noundef %20, ptr noundef %62, i64 noundef %63)
  store i32 %64, ptr %18, align 4, !tbaa !3
  %65 = icmp ne i32 %64, 0
  br i1 %65, label %66, label %68

66:                                               ; preds = %50
  %67 = load i32, ptr %18, align 4, !tbaa !3
  store i32 %67, ptr %9, align 4
  store i32 1, ptr %21, align 4
  br label %73

68:                                               ; preds = %50
  %69 = load i64, ptr %19, align 8, !tbaa !27
  %70 = load i64, ptr %20, align 8, !tbaa !27
  %71 = add i64 %69, %70
  %72 = load ptr, ptr %11, align 8, !tbaa !23
  store i64 %71, ptr %72, align 8, !tbaa !27
  store i32 0, ptr %9, align 4
  store i32 1, ptr %21, align 4
  br label %73

73:                                               ; preds = %68, %66, %48, %39, %27
  call void @llvm.lifetime.end.p0(i64 8, ptr %20) #4
  call void @llvm.lifetime.end.p0(i64 8, ptr %19) #4
  call void @llvm.lifetime.end.p0(i64 4, ptr %18) #4
  %74 = load i32, ptr %9, align 4
  ret i32 %74
}

; Function Attrs: nounwind uwtable
define hidden i32 @mbedtls_ecdh_make_params(ptr noundef %0, ptr noundef %1, ptr noundef %2, i64 noundef %3, ptr noundef %4, ptr noundef %5) #0 {
  %7 = alloca i32, align 4
  %8 = alloca ptr, align 8
  %9 = alloca ptr, align 8
  %10 = alloca ptr, align 8
  %11 = alloca i64, align 8
  %12 = alloca ptr, align 8
  %13 = alloca ptr, align 8
  %14 = alloca i32, align 4
  %15 = alloca i32, align 4
  store ptr %0, ptr %8, align 8, !tbaa !15
  store ptr %1, ptr %9, align 8, !tbaa !23
  store ptr %2, ptr %10, align 8, !tbaa !25
  store i64 %3, ptr %11, align 8, !tbaa !27
  store ptr %4, ptr %12, align 8, !tbaa !14
  store ptr %5, ptr %13, align 8, !tbaa !14
  call void @llvm.lifetime.start.p0(i64 4, ptr %14) #4
  store i32 0, ptr %14, align 4, !tbaa !3
  %16 = load ptr, ptr %8, align 8, !tbaa !15
  %17 = getelementptr inbounds nuw %struct.mbedtls_ecdh_context, ptr %16, i32 0, i32 2
  %18 = load i32, ptr %17, align 8, !tbaa !19
  switch i32 %18, label %33 [
    i32 1, label %19
  ]

19:                                               ; preds = %6
  %20 = load ptr, ptr %8, align 8, !tbaa !15
  %21 = getelementptr inbounds nuw %struct.mbedtls_ecdh_context, ptr %20, i32 0, i32 3
  %22 = load ptr, ptr %9, align 8, !tbaa !23
  %23 = load ptr, ptr %8, align 8, !tbaa !15
  %24 = getelementptr inbounds nuw %struct.mbedtls_ecdh_context, ptr %23, i32 0, i32 0
  %25 = load i8, ptr %24, align 8, !tbaa !20
  %26 = zext i8 %25 to i32
  %27 = load ptr, ptr %10, align 8, !tbaa !25
  %28 = load i64, ptr %11, align 8, !tbaa !27
  %29 = load ptr, ptr %12, align 8, !tbaa !14
  %30 = load ptr, ptr %13, align 8, !tbaa !14
  %31 = load i32, ptr %14, align 4, !tbaa !3
  %32 = call i32 @ecdh_make_params_internal(ptr noundef %21, ptr noundef %22, i32 noundef %26, ptr noundef %27, i64 noundef %28, ptr noundef %29, ptr noundef %30, i32 noundef %31)
  store i32 %32, ptr %7, align 4
  store i32 1, ptr %15, align 4
  br label %34

33:                                               ; preds = %6
  store i32 -20352, ptr %7, align 4
  store i32 1, ptr %15, align 4
  br label %34

34:                                               ; preds = %33, %19
  call void @llvm.lifetime.end.p0(i64 4, ptr %14) #4
  %35 = load i32, ptr %7, align 4
  ret i32 %35
}