; Function Attrs: nounwind uwtable
define hidden i32 @mbedtls_ecdh_make_params(ptr noundef %0, ptr noundef writeonly captures(none) %1, ptr noundef %2, i64 noundef %3, ptr noundef %4, ptr noundef %5) local_unnamed_addr #1 {
  %7 = alloca i64, align 8
  %8 = alloca i64, align 8
  %9 = getelementptr inbounds nuw i8, ptr %0, i64 8
  %10 = load i32, ptr %9, align 8, !tbaa !9
  %cond = icmp eq i32 %10, 1
  br i1 %cond, label %11, label %35

11:                                               ; preds = %6
  %12 = getelementptr inbounds nuw i8, ptr %0, i64 16
  %13 = load i8, ptr %0, align 8, !tbaa !8
  %14 = zext i8 %13 to i32
  call void @llvm.lifetime.start.p0(i64 8, ptr nonnull %7) #7
  call void @llvm.lifetime.start.p0(i64 8, ptr nonnull %8) #7
  %15 = getelementptr inbounds nuw i8, ptr %0, i64 136
  %16 = load i64, ptr %15, align 8, !tbaa !10
  %17 = icmp eq i64 %16, 0
  br i1 %17, label %ecdh_make_params_internal.exit, label %18

18:                                               ; preds = %11
  %19 = getelementptr inbounds nuw i8, ptr %0, i64 208
  %20 = getelementptr inbounds nuw i8, ptr %0, i64 224
  %21 = tail call i32 @mbedtls_ecp_gen_privkey(ptr noundef nonnull %12, ptr noundef nonnull %19, ptr noundef %4, ptr noundef %5) #7
  %.not.i.i.i = icmp eq i32 %21, 0
  br i1 %.not.i.i.i, label %mbedtls_ecdh_gen_public.exit.i, label %ecdh_make_params_internal.exit

mbedtls_ecdh_gen_public.exit.i:                   ; preds = %18
  %22 = getelementptr inbounds nuw i8, ptr %0, i64 72
  %23 = tail call i32 @mbedtls_ecp_mul_restartable(ptr noundef nonnull %12, ptr noundef nonnull %20, ptr noundef nonnull %19, ptr noundef nonnull %22, ptr noundef %4, ptr noundef %5, ptr noundef null) #7
  %.not.i = icmp eq i32 %23, 0
  br i1 %.not.i, label %24, label %ecdh_make_params_internal.exit

24:                                               ; preds = %mbedtls_ecdh_gen_public.exit.i
  %25 = call i32 @mbedtls_ecp_tls_write_group(ptr noundef nonnull %12, ptr noundef nonnull %7, ptr noundef %2, i64 noundef %3) #7
  %.not23.i = icmp eq i32 %25, 0
  br i1 %.not23.i, label %26, label %ecdh_make_params_internal.exit

26:                                               ; preds = %24
  %27 = load i64, ptr %7, align 8, !tbaa !20
  %28 = getelementptr inbounds nuw i8, ptr %2, i64 %27
  %29 = sub i64 %3, %27
  %30 = call i32 @mbedtls_ecp_tls_write_point(ptr noundef nonnull %12, ptr noundef nonnull %20, i32 noundef range(i32 0, 256) %14, ptr noundef nonnull %8, ptr noundef %28, i64 noundef %29) #7
  %.not24.i = icmp eq i32 %30, 0
  br i1 %.not24.i, label %31, label %ecdh_make_params_internal.exit

31:                                               ; preds = %26
  %32 = load i64, ptr %7, align 8, !tbaa !20
  %33 = load i64, ptr %8, align 8, !tbaa !20
  %34 = add i64 %33, %32
  store i64 %34, ptr %1, align 8, !tbaa !20
  br label %ecdh_make_params_internal.exit

ecdh_make_params_internal.exit:                   ; preds = %11, %18, %mbedtls_ecdh_gen_public.exit.i, %24, %26, %31
  %.0.i = phi i32 [ 0, %31 ], [ -20352, %11 ], [ %23, %mbedtls_ecdh_gen_public.exit.i ], [ %25, %24 ], [ %30, %26 ], [ %21, %18 ]
  call void @llvm.lifetime.end.p0(i64 8, ptr nonnull %8) #7
  call void @llvm.lifetime.end.p0(i64 8, ptr nonnull %7) #7
  br label %35

35:                                               ; preds = %6, %ecdh_make_params_internal.exit
  %.0 = phi i32 [ %.0.i, %ecdh_make_params_internal.exit ], [ -20352, %6 ]
  ret i32 %.0
}